target datalayout = "e-m:e-p270:32:32-p271:32:32-p272:64:64-i64:64-i128:128-f80:128-n8:16:32:64-S128"
target triple = "x86_64-unknown-linux-gnu"

%class.btVector3 = type { [4 x float] }

; Function Attrs: mustprogress nounwind uwtable
define linkonce_odr dso_local void @_ZN9btVector3C2ERKfS1_S1_(ptr noundef nonnull align 4 dereferenceable(16) %this, ptr noundef nonnull align 4 dereferenceable(4) %_x, ptr noundef nonnull align 4 dereferenceable(4) %_y, ptr noundef nonnull align 4 dereferenceable(4) %_z) unnamed_addr #1 comdat align 2 {
entry:
  %this.addr = alloca ptr, align 8
  %_x.addr = alloca ptr, align 8
  %_y.addr = alloca ptr, align 8
  %_z.addr = alloca ptr, align 8
  store ptr %this, ptr %this.addr, align 8
  store ptr %_x, ptr %_x.addr, align 8
  store ptr %_y, ptr %_y.addr, align 8
  store ptr %_z, ptr %_z.addr, align 8
  %this1 = load ptr, ptr %this.addr, align 8
  %0 = load ptr, ptr %_x.addr, align 8
  %1 = load float, ptr %0, align 4
  %m_floats = getelementptr inbounds %class.btVector3, ptr %this1, i32 0, i32 0
  %arrayidx = getelementptr inbounds [4 x float], ptr %m_floats, i64 0, i64 0
  store float %1, ptr %arrayidx, align 4
  %2 = load ptr, ptr %_y.addr, align 8
  %3 = load float, ptr %2, align 4
  %m_floats2 = getelementptr inbounds %class.btVector3, ptr %this1, i32 0, i32 0
  %arrayidx3 = getelementptr inbounds [4 x float], ptr %m_floats2, i64 0, i64 1
  store float %3, ptr %arrayidx3, align 4
  %4 = load ptr, ptr %_z.addr, align 8
  %5 = load float, ptr %4, align 4
  %m_floats4 = getelementptr inbounds %class.btVector3, ptr %this1, i32 0, i32 0
  %arrayidx5 = getelementptr inbounds [4 x float], ptr %m_floats4, i64 0, i64 2
  store float %5, ptr %arrayidx5, align 4
  %m_floats6 = getelementptr inbounds %class.btVector3, ptr %this1, i32 0, i32 0
  %arrayidx7 = getelementptr inbounds [4 x float], ptr %m_floats6, i64 0, i64 3
  store float 0.000000e+00, ptr %arrayidx7, align 4
  ret void
}

; Function Attrs: mustprogress nounwind uwtable
define linkonce_odr dso_local noundef float @_ZNK9btVector33dotERKS_(ptr noundef nonnull align 4 dereferenceable(16) %this, ptr noundef nonnull align 4 dereferenceable(16) %v) #1 comdat align 2 {
entry:
  %this.addr = alloca ptr, align 8
  %v.addr = alloca ptr, align 8
  store ptr %this, ptr %this.addr, align 8
  store ptr %v, ptr %v.addr, align 8
  %this1 = load ptr, ptr %this.addr, align 8
  %m_floats = getelementptr inbounds %class.btVector3, ptr %this1, i32 0, i32 0
  %arrayidx = getelementptr inbounds [4 x float], ptr %m_floats, i64 0, i64 0
  %0 = load float, ptr %arrayidx, align 4
  %1 = load ptr, ptr %v.addr, align 8
  %m_floats2 = getelementptr inbounds %class.btVector3, ptr %1, i32 0, i32 0
  %arrayidx3 = getelementptr inbounds [4 x float], ptr %m_floats2, i64 0, i64 0
  %2 = load float, ptr %arrayidx3, align 4
  %m_floats4 = getelementptr inbounds %class.btVector3, ptr %this1, i32 0, i32 0
  %arrayidx5 = getelementptr inbounds [4 x float], ptr %m_floats4, i64 0, i64 1
  %3 = load float, ptr %arrayidx5, align 4
  %4 = load ptr, ptr %v.addr, align 8
  %m_floats6 = getelementptr inbounds %class.btVector3, ptr %4, i32 0, i32 0
  %arrayidx7 = getelementptr inbounds [4 x float], ptr %m_floats6, i64 0, i64 1
  %5 = load float, ptr %arrayidx7, align 4
  %mul8 = fmul float %3, %5
  %6 = call float @llvm.fmuladd.f32(float %0, float %2, float %mul8)
  %m_floats9 = getelementptr inbounds %class.btVector3, ptr %this1, i32 0, i32 0
  %arrayidx10 = getelementptr inbounds [4 x float], ptr %m_floats9, i64 0, i64 2
  %7 = load float, ptr %arrayidx10, align 4
  %8 = load ptr, ptr %v.addr, align 8
  %m_floats11 = getelementptr inbounds %class.btVector3, ptr %8, i32 0, i32 0
  %arrayidx12 = getelementptr inbounds [4 x float], ptr %m_floats11, i64 0, i64 2
  %9 = load float, ptr %arrayidx12, align 4
  %10 = call float @llvm.fmuladd.f32(float %7, float %9, float %6)
  ret float %10
}

; Function Attrs: mustprogress uwtable
define linkonce_odr dso_local { <2 x float>, <2 x float> } @_ZNK9btVector35crossERKS_(ptr noundef nonnull align 4 dereferenceable(16) %this, ptr noundef nonnull align 4 dereferenceable(16) %v) #3 comdat align 2 {
entry:
  %retval = alloca %class.btVector3, align 4
  %this.addr = alloca ptr, align 8
  %v.addr = alloca ptr, align 8
  %ref.tmp = alloca float, align 4
  %ref.tmp9 = alloca float, align 4
  %ref.tmp20 = alloca float, align 4
  store ptr %this, ptr %this.addr, align 8
  store ptr %v, ptr %v.addr, align 8
  %this1 = load ptr, ptr %this.addr, align 8
  %m_floats = getelementptr inbounds %class.btVector3, ptr %this1, i32 0, i32 0
  %arrayidx = getelementptr inbounds [4 x float], ptr %m_floats, i64 0, i64 1
  %0 = load float, ptr %arrayidx, align 4
  %1 = load ptr, ptr %v.addr, align 8
  %m_floats2 = getelementptr inbounds %class.btVector3, ptr %1, i32 0, i32 0
  %arrayidx3 = getelementptr inbounds [4 x float], ptr %m_floats2, i64 0, i64 2
  %2 = load float, ptr %arrayidx3, align 4
  %m_floats4 = getelementptr inbounds %class.btVector3, ptr %this1, i32 0, i32 0
  %arrayidx5 = getelementptr inbounds [4 x float], ptr %m_floats4, i64 0, i64 2
  %3 = load float, ptr %arrayidx5, align 4
  %4 = load ptr, ptr %v.addr, align 8
  %m_floats6 = getelementptr inbounds %class.btVector3, ptr %4, i32 0, i32 0
  %arrayidx7 = getelementptr inbounds [4 x float], ptr %m_floats6, i64 0, i64 1
  %5 = load float, ptr %arrayidx7, align 4
  %mul8 = fmul float %3, %5
  %neg = fneg float %mul8
  %6 = call float @llvm.fmuladd.f32(float %0, float %2, float %neg)
  store float %6, ptr %ref.tmp, align 4
  %m_floats10 = getelementptr inbounds %class.btVector3, ptr %this1, i32 0, i32 0
  %arrayidx11 = getelementptr inbounds [4 x float], ptr %m_floats10, i64 0, i64 2
  %7 = load float, ptr %arrayidx11, align 4
  %8 = load ptr, ptr %v.addr, align 8
  %m_floats12 = getelementptr inbounds %class.btVector3, ptr %8, i32 0, i32 0
  %arrayidx13 = getelementptr inbounds [4 x float], ptr %m_floats12, i64 0, i64 0
  %9 = load float, ptr %arrayidx13, align 4
  %m_floats14 = getelementptr inbounds %class.btVector3, ptr %this1, i32 0, i32 0
  %arrayidx15 = getelementptr inbounds [4 x float], ptr %m_floats14, i64 0, i64 0
  %10 = load float, ptr %arrayidx15, align 4
  %11 = load ptr, ptr %v.addr, align 8
  %m_floats16 = getelementptr inbounds %class.btVector3, ptr %11, i32 0, i32 0
  %arrayidx17 = getelementptr inbounds [4 x float], ptr %m_floats16, i64 0, i64 2
  %12 = load float, ptr %arrayidx17, align 4
  %mul18 = fmul float %10, %12
  %neg19 = fneg float %mul18
  %13 = call float @llvm.fmuladd.f32(float %7, float %9, float %neg19)
  store float %13, ptr %ref.tmp9, align 4
  %m_floats21 = getelementptr inbounds %class.btVector3, ptr %this1, i32 0, i32 0
  %arrayidx22 = getelementptr inbounds [4 x float], ptr %m_floats21, i64 0, i64 0
  %14 = load float, ptr %arrayidx22, align 4
  %15 = load ptr, ptr %v.addr, align 8
  %m_floats23 = getelementptr inbounds %class.btVector3, ptr %15, i32 0, i32 0
  %arrayidx24 = getelementptr inbounds [4 x float], ptr %m_floats23, i64 0, i64 1
  %16 = load float, ptr %arrayidx24, align 4
  %m_floats25 = getelementptr inbounds %class.btVector3, ptr %this1, i32 0, i32 0
  %arrayidx26 = getelementptr inbounds [4 x float], ptr %m_floats25, i64 0, i64 1
  %17 = load float, ptr %arrayidx26, align 4
  %18 = load ptr, ptr %v.addr, align 8
  %m_floats27 = getelementptr inbounds %class.btVector3, ptr %18, i32 0, i32 0
  %arrayidx28 = getelementptr inbounds [4 x float], ptr %m_floats27, i64 0, i64 0
  %19 = load float, ptr %arrayidx28, align 4
  %mul29 = fmul float %17, %19
  %neg30 = fneg float %mul29
  %20 = call float @llvm.fmuladd.f32(float %14, float %16, float %neg30)
  store float %20, ptr %ref.tmp20, align 4
  call void @_ZN9btVector3C2ERKfS1_S1_(ptr noundef nonnull align 4 dereferenceable(16) %retval, ptr noundef nonnull align 4 dereferenceable(4) %ref.tmp, ptr noundef nonnull align 4 dereferenceable(4) %ref.tmp9, ptr noundef nonnull align 4 dereferenceable(4) %ref.tmp20)
  %coerce.dive = getelementptr inbounds %class.btVector3, ptr %retval, i32 0, i32 0
  %21 = load { <2 x float>, <2 x float> }, ptr %coerce.dive, align 4
  ret { <2 x float>, <2 x float> } %21
}

; Function Attrs: mustprogress uwtable
define linkonce_odr dso_local { <2 x float>, <2 x float> } @_ZmiRK9btVector3S1_(ptr noundef nonnull align 4 dereferenceable(16) %v1, ptr noundef nonnull align 4 dereferenceable(16) %v2) #3 comdat {
entry:
  %retval = alloca %class.btVector3, align 4
  %v1.addr = alloca ptr, align 8
  %v2.addr = alloca ptr, align 8
  %ref.tmp = alloca float, align 4
  %ref.tmp3 = alloca float, align 4
  %ref.tmp9 = alloca float, align 4
  store ptr %v1, ptr %v1.addr, align 8
  store ptr %v2, ptr %v2.addr, align 8
  %0 = load ptr, ptr %v1.addr, align 8
  %m_floats = getelementptr inbounds %class.btVector3, ptr %0, i32 0, i32 0
  %arrayidx = getelementptr inbounds [4 x float], ptr %m_floats, i64 0, i64 0
  %1 = load float, ptr %arrayidx, align 4
  %2 = load ptr, ptr %v2.addr, align 8
  %m_floats1 = getelementptr inbounds %class.btVector3, ptr %2, i32 0, i32 0
  %arrayidx2 = getelementptr inbounds [4 x float], ptr %m_floats1, i64 0, i64 0
  %3 = load float, ptr %arrayidx2, align 4
  %sub = fsub float %1, %3
  store float %sub, ptr %ref.tmp, align 4
  %4 = load ptr, ptr %v1.addr, align 8
  %m_floats4 = getelementptr inbounds %class.btVector3, ptr %4, i32 0, i32 0
  %arrayidx5 = getelementptr inbounds [4 x float], ptr %m_floats4, i64 0, i64 1
  %5 = load float, ptr %arrayidx5, align 4
  %6 = load ptr, ptr %v2.addr, align 8
  %m_floats6 = getelementptr inbounds %class.btVector3, ptr %6, i32 0, i32 0
  %arrayidx7 = getelementptr inbounds [4 x float], ptr %m_floats6, i64 0, i64 1
  %7 = load float, ptr %arrayidx7, align 4
  %sub8 = fsub float %5, %7
  store float %sub8, ptr %ref.tmp3, align 4
  %8 = load ptr, ptr %v1.addr, align 8
  %m_floats10 = getelementptr inbounds %class.btVector3, ptr %8, i32 0, i32 0
  %arrayidx11 = getelementptr inbounds [4 x float], ptr %m_floats10, i64 0, i64 2
  %9 = load float, ptr %arrayidx11, align 4
  %10 = load ptr, ptr %v2.addr, align 8
  %m_floats12 = getelementptr inbounds %class.btVector3, ptr %10, i32 0, i32 0
  %arrayidx13 = getelementptr inbounds [4 x float], ptr %m_floats12, i64 0, i64 2
  %11 = load float, ptr %arrayidx13, align 4
  %sub14 = fsub float %9, %11
  store float %sub14, ptr %ref.tmp9, align 4
  call void @_ZN9btVector3C2ERKfS1_S1_(ptr noundef nonnull align 4 dereferenceable(16) %retval, ptr noundef nonnull align 4 dereferenceable(4) %ref.tmp, ptr noundef nonnull align 4 dereferenceable(4) %ref.tmp3, ptr noundef nonnull align 4 dereferenceable(4) %ref.tmp9)
  %coerce.dive = getelementptr inbounds %class.btVector3, ptr %retval, i32 0, i32 0
  %12 = load { <2 x float>, <2 x float> }, ptr %coerce.dive, align 4
  ret { <2 x float>, <2 x float> } %12
}

; Function Attrs: mustprogress uwtable
define dso_local noundef zeroext i1 @_ZN22SphereTriangleDetector15pointInTriangleEPK9btVector3RS1_PS0_(ptr noundef nonnull align 8 dereferenceable(28) %this, ptr noundef %vertices, ptr noundef nonnull align 4 dereferenceable(16) %normal, ptr noundef %p) #2 align 2 {
entry:
  %retval = alloca i1, align 1
  %this.addr = alloca ptr, align 8
  %vertices.addr = alloca ptr, align 8
  %normal.addr = alloca ptr, align 8
  %p.addr = alloca ptr, align 8
  %p1 = alloca ptr, align 8
  %p2 = alloca ptr, align 8
  %p3 = alloca ptr, align 8
  %edge1 = alloca %class.btVector3, align 4
  %edge2 = alloca %class.btVector3, align 4
  %edge3 = alloca %class.btVector3, align 4
  %p1_to_p = alloca %class.btVector3, align 4
  %p2_to_p = alloca %class.btVector3, align 4
  %p3_to_p = alloca %class.btVector3, align 4
  %edge1_normal = alloca %class.btVector3, align 4
  %edge2_normal = alloca %class.btVector3, align 4
  %edge3_normal = alloca %class.btVector3, align 4
  %r1 = alloca float, align 4
  %r2 = alloca float, align 4
  %r3 = alloca float, align 4
  store ptr %this, ptr %this.addr, align 8
  store ptr %vertices, ptr %vertices.addr, align 8
  store ptr %normal, ptr %normal.addr, align 8
  store ptr %p, ptr %p.addr, align 8
  %0 = load ptr, ptr %vertices.addr, align 8
  %arrayidx = getelementptr inbounds %class.btVector3, ptr %0, i64 0
  store ptr %arrayidx, ptr %p1, align 8
  %1 = load ptr, ptr %vertices.addr, align 8
  %arrayidx2 = getelementptr inbounds %class.btVector3, ptr %1, i64 1
  store ptr %arrayidx2, ptr %p2, align 8
  %2 = load ptr, ptr %vertices.addr, align 8
  %arrayidx3 = getelementptr inbounds %class.btVector3, ptr %2, i64 2
  store ptr %arrayidx3, ptr %p3, align 8
  %3 = load ptr, ptr %p2, align 8
  %4 = load ptr, ptr %p1, align 8
  %call = call { <2 x float>, <2 x float> } @_ZmiRK9btVector3S1_(ptr noundef nonnull align 4 dereferenceable(16) %3, ptr noundef nonnull align 4 dereferenceable(16) %4)
  %coerce.dive = getelementptr inbounds %class.btVector3, ptr %edge1, i32 0, i32 0
  %5 = getelementptr inbounds { <2 x float>, <2 x float> }, ptr %coerce.dive, i32 0, i32 0
  %6 = extractvalue { <2 x float>, <2 x float> } %call, 0
  store <2 x float> %6, ptr %5, align 4
  %7 = getelementptr inbounds { <2 x float>, <2 x float> }, ptr %coerce.dive, i32 0, i32 1
  %8 = extractvalue { <2 x float>, <2 x float> } %call, 1
  store <2 x float> %8, ptr %7, align 4
  %9 = load ptr, ptr %p3, align 8
  %10 = load ptr, ptr %p2, align 8
  %call4 = call { <2 x float>, <2 x float> } @_ZmiRK9btVector3S1_(ptr noundef nonnull align 4 dereferenceable(16) %9, ptr noundef nonnull align 4 dereferenceable(16) %10)
  %coerce.dive5 = getelementptr inbounds %class.btVector3, ptr %edge2, i32 0, i32 0
  %11 = getelementptr inbounds { <2 x float>, <2 x float> }, ptr %coerce.dive5, i32 0, i32 0
  %12 = extractvalue { <2 x float>, <2 x float> } %call4, 0
  store <2 x float> %12, ptr %11, align 4
  %13 = getelementptr inbounds { <2 x float>, <2 x float> }, ptr %coerce.dive5, i32 0, i32 1
  %14 = extractvalue { <2 x float>, <2 x float> } %call4, 1
  store <2 x float> %14, ptr %13, align 4
  %15 = load ptr, ptr %p1, align 8
  %16 = load ptr, ptr %p3, align 8
  %call6 = call { <2 x float>, <2 x float> } @_ZmiRK9btVector3S1_(ptr noundef nonnull align 4 dereferenceable(16) %15, ptr noundef nonnull align 4 dereferenceable(16) %16)
  %coerce.dive7 = getelementptr inbounds %class.btVector3, ptr %edge3, i32 0, i32 0
  %17 = getelementptr inbounds { <2 x float>, <2 x float> }, ptr %coerce.dive7, i32 0, i32 0
  %18 = extractvalue { <2 x float>, <2 x float> } %call6, 0
  store <2 x float> %18, ptr %17, align 4
  %19 = getelementptr inbounds { <2 x float>, <2 x float> }, ptr %coerce.dive7, i32 0, i32 1
  %20 = extractvalue { <2 x float>, <2 x float> } %call6, 1
  store <2 x float> %20, ptr %19, align 4
  %21 = load ptr, ptr %p.addr, align 8
  %22 = load ptr, ptr %p1, align 8
  %call8 = call { <2 x float>, <2 x float> } @_ZmiRK9btVector3S1_(ptr noundef nonnull align 4 dereferenceable(16) %21, ptr noundef nonnull align 4 dereferenceable(16) %22)
  %coerce.dive9 = getelementptr inbounds %class.btVector3, ptr %p1_to_p, i32 0, i32 0
  %23 = getelementptr inbounds { <2 x float>, <2 x float> }, ptr %coerce.dive9, i32 0, i32 0
  %24 = extractvalue { <2 x float>, <2 x float> } %call8, 0
  store <2 x float> %24, ptr %23, align 4
  %25 = getelementptr inbounds { <2 x float>, <2 x float> }, ptr %coerce.dive9, i32 0, i32 1
  %26 = extractvalue { <2 x float>, <2 x float> } %call8, 1
  store <2 x float> %26, ptr %25, align 4
  %27 = load ptr, ptr %p.addr, align 8
  %28 = load ptr, ptr %p2, align 8
  %call10 = call { <2 x float>, <2 x float> } @_ZmiRK9btVector3S1_(ptr noundef nonnull align 4 dereferenceable(16) %27, ptr noundef nonnull align 4 dereferenceable(16) %28)
  %coerce.dive11 = getelementptr inbounds %class.btVector3, ptr %p2_to_p, i32 0, i32 0
  %29 = getelementptr inbounds { <2 x float>, <2 x float> }, ptr %coerce.dive11, i32 0, i32 0
  %30 = extractvalue { <2 x float>, <2 x float> } %call10, 0
  store <2 x float> %30, ptr %29, align 4
  %31 = getelementptr inbounds { <2 x float>, <2 x float> }, ptr %coerce.dive11, i32 0, i32 1
  %32 = extractvalue { <2 x float>, <2 x float> } %call10, 1
  store <2 x float> %32, ptr %31, align 4
  %33 = load ptr, ptr %p.addr, align 8
  %34 = load ptr, ptr %p3, align 8
  %call12 = call { <2 x float>, <2 x float> } @_ZmiRK9btVector3S1_(ptr noundef nonnull align 4 dereferenceable(16) %33, ptr noundef nonnull align 4 dereferenceable(16) %34)
  %coerce.dive13 = getelementptr inbounds %class.btVector3, ptr %p3_to_p, i32 0, i32 0
  %35 = getelementptr inbounds { <2 x float>, <2 x float> }, ptr %coerce.dive13, i32 0, i32 0
  %36 = extractvalue { <2 x float>, <2 x float> } %call12, 0
  store <2 x float> %36, ptr %35, align 4
  %37 = getelementptr inbounds { <2 x float>, <2 x float> }, ptr %coerce.dive13, i32 0, i32 1
  %38 = extractvalue { <2 x float>, <2 x float> } %call12, 1
  store <2 x float> %38, ptr %37, align 4
  %39 = load ptr, ptr %normal.addr, align 8
  %call14 = call { <2 x float>, <2 x float> } @_ZNK9btVector35crossERKS_(ptr noundef nonnull align 4 dereferenceable(16) %edge1, ptr noundef nonnull align 4 dereferenceable(16) %39)
  %coerce.dive15 = getelementptr inbounds %class.btVector3, ptr %edge1_normal, i32 0, i32 0
  %40 = getelementptr inbounds { <2 x float>, <2 x float> }, ptr %coerce.dive15, i32 0, i32 0
  %41 = extractvalue { <2 x float>, <2 x float> } %call14, 0
  store <2 x float> %41, ptr %40, align 4
  %42 = getelementptr inbounds { <2 x float>, <2 x float> }, ptr %coerce.dive15, i32 0, i32 1
  %43 = extractvalue { <2 x float>, <2 x float> } %call14, 1
  store <2 x float> %43, ptr %42, align 4
  %44 = load ptr, ptr %normal.addr, align 8
  %call16 = call { <2 x float>, <2 x float> } @_ZNK9btVector35crossERKS_(ptr noundef nonnull align 4 dereferenceable(16) %edge2, ptr noundef nonnull align 4 dereferenceable(16) %44)
  %coerce.dive17 = getelementptr inbounds %class.btVector3, ptr %edge2_normal, i32 0, i32 0
  %45 = getelementptr inbounds { <2 x float>, <2 x float> }, ptr %coerce.dive17, i32 0, i32 0
  %46 = extractvalue { <2 x float>, <2 x float> } %call16, 0
  store <2 x float> %46, ptr %45, align 4
  %47 = getelementptr inbounds { <2 x float>, <2 x float> }, ptr %coerce.dive17, i32 0, i32 1
  %48 = extractvalue { <2 x float>, <2 x float> } %call16, 1
  store <2 x float> %48, ptr %47, align 4
  %49 = load ptr, ptr %normal.addr, align 8
  %call18 = call { <2 x float>, <2 x float> } @_ZNK9btVector35crossERKS_(ptr noundef nonnull align 4 dereferenceable(16) %edge3, ptr noundef nonnull align 4 dereferenceable(16) %49)
  %coerce.dive19 = getelementptr inbounds %class.btVector3, ptr %edge3_normal, i32 0, i32 0
  %50 = getelementptr inbounds { <2 x float>, <2 x float> }, ptr %coerce.dive19, i32 0, i32 0
  %51 = extractvalue { <2 x float>, <2 x float> } %call18, 0
  store <2 x float> %51, ptr %50, align 4
  %52 = getelementptr inbounds { <2 x float>, <2 x float> }, ptr %coerce.dive19, i32 0, i32 1
  %53 = extractvalue { <2 x float>, <2 x float> } %call18, 1
  store <2 x float> %53, ptr %52, align 4
  %call20 = call noundef float @_ZNK9btVector33dotERKS_(ptr noundef nonnull align 4 dereferenceable(16) %edge1_normal, ptr noundef nonnull align 4 dereferenceable(16) %p1_to_p)
  store float %call20, ptr %r1, align 4
  %call21 = call noundef float @_ZNK9btVector33dotERKS_(ptr noundef nonnull align 4 dereferenceable(16) %edge2_normal, ptr noundef nonnull align 4 dereferenceable(16) %p2_to_p)
  store float %call21, ptr %r2, align 4
  %call22 = call noundef float @_ZNK9btVector33dotERKS_(ptr noundef nonnull align 4 dereferenceable(16) %edge3_normal, ptr noundef nonnull align 4 dereferenceable(16) %p3_to_p)
  store float %call22, ptr %r3, align 4
  %54 = load float, ptr %r1, align 4
  %cmp = fcmp ogt float %54, 0.000000e+00
  br i1 %cmp, label %land.lhs.true, label %lor.lhs.false

land.lhs.true:                                    ; preds = %entry
  %55 = load float, ptr %r2, align 4
  %cmp23 = fcmp ogt float %55, 0.000000e+00
  br i1 %cmp23, label %land.lhs.true24, label %lor.lhs.false

land.lhs.true24:                                  ; preds = %land.lhs.true
  %56 = load float, ptr %r3, align 4
  %cmp25 = fcmp ogt float %56, 0.000000e+00
  br i1 %cmp25, label %if.then, label %lor.lhs.false

lor.lhs.false:                                    ; preds = %land.lhs.true24, %land.lhs.true, %entry
  %57 = load float, ptr %r1, align 4
  %cmp26 = fcmp ole float %57, 0.000000e+00
  br i1 %cmp26, label %land.lhs.true27, label %if.end

land.lhs.true27:                                  ; preds = %lor.lhs.false
  %58 = load float, ptr %r2, align 4
  %cmp28 = fcmp ole float %58, 0.000000e+00
  br i1 %cmp28, label %land.lhs.true29, label %if.end

land.lhs.true29:                                  ; preds = %land.lhs.true27
  %59 = load float, ptr %r3, align 4
  %cmp30 = fcmp ole float %59, 0.000000e+00
  br i1 %cmp30, label %if.then, label %if.end

if.then:                                          ; preds = %land.lhs.true29, %land.lhs.true24
  store i1 true, ptr %retval, align 1
  br label %return

if.end:                                           ; preds = %land.lhs.true29, %land.lhs.true27, %lor.lhs.false
  store i1 false, ptr %retval, align 1
  br label %return

return:                                           ; preds = %if.end, %if.then
  %60 = load i1, ptr %retval, align 1
  ret i1 %60
}