; Function Attrs: mustprogress nofree norecurse nosync nounwind willreturn memory(argmem: read) uwtable
define dso_local noundef zeroext i1 @_ZN22SphereTriangleDetector15pointInTriangleEPK9btVector3RS1_PS0_(ptr nocapture nonnull readnone align 8 %this, ptr nocapture noundef readonly %vertices, ptr nocapture noundef nonnull readonly align 4 dereferenceable(16) %normal, ptr nocapture noundef readonly %p) local_unnamed_addr #5 align 2 {
entry:
  %arrayidx2 = getelementptr inbounds i8, ptr %vertices, i64 16
  %arrayidx3 = getelementptr inbounds i8, ptr %vertices, i64 32
  %0 = load float, ptr %arrayidx2, align 4
  %1 = load float, ptr %vertices, align 4
  %arrayidx5.i = getelementptr inbounds i8, ptr %vertices, i64 20
  %2 = load float, ptr %arrayidx5.i, align 4
  %arrayidx7.i = getelementptr inbounds i8, ptr %vertices, i64 4
  %3 = load float, ptr %arrayidx7.i, align 4
  %arrayidx11.i = getelementptr inbounds i8, ptr %vertices, i64 24
  %4 = load float, ptr %arrayidx11.i, align 4
  %arrayidx13.i = getelementptr inbounds i8, ptr %vertices, i64 8
  %5 = load float, ptr %arrayidx13.i, align 4
  %6 = load float, ptr %arrayidx3, align 4
  %arrayidx5.i20 = getelementptr inbounds i8, ptr %vertices, i64 36
  %7 = load float, ptr %arrayidx5.i20, align 4
  %arrayidx11.i23 = getelementptr inbounds i8, ptr %vertices, i64 40
  %8 = load float, ptr %arrayidx11.i23, align 4
  %sub.i31 = fsub float %1, %6
  %sub8.i34 = fsub float %3, %7
  %sub14.i37 = fsub float %5, %8
  %9 = load float, ptr %p, align 4
  %arrayidx5.i44 = getelementptr inbounds i8, ptr %p, i64 4
  %10 = load float, ptr %arrayidx5.i44, align 4
  %arrayidx11.i47 = getelementptr inbounds i8, ptr %p, i64 8
  %11 = load float, ptr %arrayidx11.i47, align 4
  %sub.i67 = fsub float %9, %6
  %sub8.i70 = fsub float %10, %7
  %sub14.i73 = fsub float %11, %8
  %arrayidx3.i = getelementptr inbounds i8, ptr %normal, i64 8
  %12 = load float, ptr %arrayidx3.i, align 4
  %arrayidx7.i80 = getelementptr inbounds i8, ptr %normal, i64 4
  %13 = load float, ptr %arrayidx7.i80, align 4
  %14 = load float, ptr %normal, align 4
  %15 = fneg float %sub14.i37
  %neg.i102 = fmul float %13, %15
  %16 = tail call float @llvm.fmuladd.f32(float %sub8.i34, float %12, float %neg.i102)
  %17 = fneg float %sub.i31
  %neg19.i103 = fmul float %12, %17
  %18 = tail call float @llvm.fmuladd.f32(float %sub14.i37, float %14, float %neg19.i103)
  %19 = fneg float %sub8.i34
  %neg30.i104 = fmul float %14, %19
  %20 = tail call float @llvm.fmuladd.f32(float %sub.i31, float %13, float %neg30.i104)
  %21 = insertelement <2 x float> poison, float %0, i64 0
  %22 = insertelement <2 x float> %21, float %6, i64 1
  %23 = insertelement <2 x float> poison, float %1, i64 0
  %24 = insertelement <2 x float> %23, float %0, i64 1
  %25 = fsub <2 x float> %22, %24
  %26 = insertelement <2 x float> poison, float %2, i64 0
  %27 = insertelement <2 x float> %26, float %7, i64 1
  %28 = insertelement <2 x float> poison, float %3, i64 0
  %29 = insertelement <2 x float> %28, float %2, i64 1
  %30 = fsub <2 x float> %27, %29
  %31 = insertelement <2 x float> poison, float %4, i64 0
  %32 = insertelement <2 x float> %31, float %8, i64 1
  %33 = insertelement <2 x float> poison, float %5, i64 0
  %34 = insertelement <2 x float> %33, float %4, i64 1
  %35 = fsub <2 x float> %32, %34
  %36 = insertelement <2 x float> poison, float %9, i64 0
  %37 = shufflevector <2 x float> %36, <2 x float> poison, <2 x i32> zeroinitializer
  %38 = fsub <2 x float> %37, %24
  %39 = insertelement <2 x float> poison, float %10, i64 0
  %40 = shufflevector <2 x float> %39, <2 x float> poison, <2 x i32> zeroinitializer
  %41 = fsub <2 x float> %40, %29
  %42 = insertelement <2 x float> poison, float %11, i64 0
  %43 = shufflevector <2 x float> %42, <2 x float> poison, <2 x i32> zeroinitializer
  %44 = fsub <2 x float> %43, %34
  %45 = fneg <2 x float> %35
  %46 = insertelement <2 x float> poison, float %13, i64 0
  %47 = shufflevector <2 x float> %46, <2 x float> poison, <2 x i32> zeroinitializer
  %48 = fmul <2 x float> %47, %45
  %49 = insertelement <2 x float> poison, float %12, i64 0
  %50 = shufflevector <2 x float> %49, <2 x float> poison, <2 x i32> zeroinitializer
  %51 = tail call <2 x float> @llvm.fmuladd.v2f32(<2 x float> %30, <2 x float> %50, <2 x float> %48)
  %52 = fneg <2 x float> %25
  %53 = fmul <2 x float> %50, %52
  %54 = insertelement <2 x float> poison, float %14, i64 0
  %55 = shufflevector <2 x float> %54, <2 x float> poison, <2 x i32> zeroinitializer
  %56 = tail call <2 x float> @llvm.fmuladd.v2f32(<2 x float> %35, <2 x float> %55, <2 x float> %53)
  %57 = fneg <2 x float> %30
  %58 = fmul <2 x float> %55, %57
  %59 = tail call <2 x float> @llvm.fmuladd.v2f32(<2 x float> %25, <2 x float> %47, <2 x float> %58)
  %60 = fmul <2 x float> %41, %56
  %61 = tail call <2 x float> @llvm.fmuladd.v2f32(<2 x float> %51, <2 x float> %38, <2 x float> %60)
  %62 = tail call <2 x float> @llvm.fmuladd.v2f32(<2 x float> %59, <2 x float> %44, <2 x float> %61)
  %mul8.i119 = fmul float %sub8.i70, %18
  %63 = tail call float @llvm.fmuladd.f32(float %16, float %sub.i67, float %mul8.i119)
  %64 = tail call noundef float @llvm.fmuladd.f32(float %20, float %sub14.i73, float %63)
  %65 = extractelement <2 x float> %62, i64 0
  %cmp = fcmp ogt float %65, 0.000000e+00
  %66 = extractelement <2 x float> %62, i64 1
  %cmp23 = fcmp ogt float %66, 0.000000e+00
  %or.cond = and i1 %cmp, %cmp23
  %cmp25 = fcmp ogt float %64, 0.000000e+00
  %or.cond1 = and i1 %cmp25, %or.cond
  br i1 %or.cond1, label %return, label %lor.lhs.false

lor.lhs.false:                                    ; preds = %entry
  %67 = fcmp ole <2 x float> %62, zeroinitializer
  %shift = shufflevector <2 x i1> %67, <2 x i1> poison, <2 x i32> <i32 1, i32 poison>
  %68 = and <2 x i1> %67, %shift
  %or.cond2 = extractelement <2 x i1> %68, i64 0
  %cmp30 = fcmp ole float %64, 0.000000e+00
  %or.cond3 = and i1 %cmp30, %or.cond2
  br label %return

return:                                           ; preds = %lor.lhs.false, %entry
  %retval.0 = phi i1 [ true, %entry ], [ %or.cond3, %lor.lhs.false ]
  ret i1 %retval.0
}